; ModuleID = '31/60.c'
source_filename = "31/60.c"
target datalayout = "e-m:e-p270:32:32-p271:32:32-p272:64:64-i64:64-f80:128-n8:16:32:64-S128"
target triple = "x86_64-pc-linux-gnu"

%struct.stu = type { [50 x i8], %struct.stu* }

@.str = private unnamed_addr constant [4 x i8] c"end\00", align 1
@.str.1 = private unnamed_addr constant [4 x i8] c"%s\0A\00", align 1

; Function Attrs: noinline nounwind uwtable
define dso_local void @main() #0 {
  %1 = alloca %struct.stu*, align 8
  %2 = alloca %struct.stu*, align 8
  %3 = alloca %struct.stu*, align 8
  %4 = alloca i32, align 4
  %5 = alloca i32, align 4
  store i32 1, i32* %4, align 4
  %6 = call noalias i8* @malloc(i64 100) #4
  %7 = bitcast i8* %6 to %struct.stu*
  store %struct.stu* %7, %struct.stu** %3, align 8
  store %struct.stu* %7, %struct.stu** %2, align 8
  %8 = load %struct.stu*, %struct.stu** %2, align 8
  %9 = getelementptr inbounds %struct.stu, %struct.stu* %8, i32 0, i32 0
  %10 = getelementptr inbounds [50 x i8], [50 x i8]* %9, i64 0, i64 0
  %11 = call i32 (i8*, ...) bitcast (i32 (...)* @gets to i32 (i8*, ...)*)(i8* %10)
  %12 = load %struct.stu*, %struct.stu** %2, align 8
  store %struct.stu* %12, %struct.stu** %1, align 8
  br label %13

13:                                               ; preds = %19, %0
  %14 = load %struct.stu*, %struct.stu** %2, align 8
  %15 = getelementptr inbounds %struct.stu, %struct.stu* %14, i32 0, i32 0
  %16 = getelementptr inbounds [50 x i8], [50 x i8]* %15, i64 0, i64 0
  %17 = call i32 @strcmp(i8* %16, i8* getelementptr inbounds ([4 x i8], [4 x i8]* @.str, i64 0, i64 0)) #5
  %18 = icmp ne i32 %17, 0
  br i1 %18, label %19, label %32

19:                                               ; preds = %13
  %20 = call noalias i8* @malloc(i64 100) #4
  %21 = bitcast i8* %20 to %struct.stu*
  store %struct.stu* %21, %struct.stu** %2, align 8
  %22 = load %struct.stu*, %struct.stu** %2, align 8
  %23 = getelementptr inbounds %struct.stu, %struct.stu* %22, i32 0, i32 0
  %24 = getelementptr inbounds [50 x i8], [50 x i8]* %23, i64 0, i64 0
  %25 = call i32 (i8*, ...) bitcast (i32 (...)* @gets to i32 (i8*, ...)*)(i8* %24)
  %26 = load %struct.stu*, %struct.stu** %2, align 8
  %27 = load %struct.stu*, %struct.stu** %3, align 8
  %28 = getelementptr inbounds %struct.stu, %struct.stu* %27, i32 0, i32 1
  store %struct.stu* %26, %struct.stu** %28, align 8
  %29 = load %struct.stu*, %struct.stu** %2, align 8
  store %struct.stu* %29, %struct.stu** %3, align 8
  %30 = load i32, i32* %4, align 4
  %31 = add nsw i32 %30, 1
  store i32 %31, i32* %4, align 4
  br label %13

32:                                               ; preds = %13
  %33 = load %struct.stu*, %struct.stu** %3, align 8
  %34 = getelementptr inbounds %struct.stu, %struct.stu* %33, i32 0, i32 1
  store %struct.stu* null, %struct.stu** %34, align 8
  br label %35

35:                                               ; preds = %56, %32
  %36 = load i32, i32* %4, align 4
  %37 = icmp sgt i32 %36, 1
  br i1 %37, label %38, label %59

38:                                               ; preds = %35
  %39 = load i32, i32* %4, align 4
  store i32 %39, i32* %5, align 4
  %40 = load %struct.stu*, %struct.stu** %1, align 8
  store %struct.stu* %40, %struct.stu** %2, align 8
  br label %41

41:                                               ; preds = %48, %38
  %42 = load i32, i32* %5, align 4
  %43 = icmp sgt i32 %42, 2
  br i1 %43, label %44, label %51

44:                                               ; preds = %41
  %45 = load %struct.stu*, %struct.stu** %2, align 8
  %46 = getelementptr inbounds %struct.stu, %struct.stu* %45, i32 0, i32 1
  %47 = load %struct.stu*, %struct.stu** %46, align 8
  store %struct.stu* %47, %struct.stu** %2, align 8
  br label %48

48:                                               ; preds = %44
  %49 = load i32, i32* %5, align 4
  %50 = add nsw i32 %49, -1
  store i32 %50, i32* %5, align 4
  br label %41

51:                                               ; preds = %41
  %52 = load %struct.stu*, %struct.stu** %2, align 8
  %53 = getelementptr inbounds %struct.stu, %struct.stu* %52, i32 0, i32 0
  %54 = getelementptr inbounds [50 x i8], [50 x i8]* %53, i64 0, i64 0
  %55 = call i32 (i8*, ...) @printf(i8* getelementptr inbounds ([4 x i8], [4 x i8]* @.str.1, i64 0, i64 0), i8* %54)
  br label %56

56:                                               ; preds = %51
  %57 = load i32, i32* %4, align 4
  %58 = add nsw i32 %57, -1
  store i32 %58, i32* %4, align 4
  br label %35

59:                                               ; preds = %35
  ret void
}

; Function Attrs: nounwind
declare dso_local noalias i8* @malloc(i64) #1

declare dso_local i32 @gets(...) #2

; Function Attrs: nounwind readonly
declare dso_local i32 @strcmp(i8*, i8*) #3

declare dso_local i32 @printf(i8*, ...) #2


!llvm.module.flags = !{!0}
!llvm.ident = !{!1}

!0 = !{i32 1, !"wchar_size", i32 4}
!1 = !{!"clang version 10.0.0-4ubuntu1 "}
